target datalayout = "e-m:e-p270:32:32-p271:32:32-p272:64:64-i64:64-i128:128-f80:128-n8:16:32:64-S128"
target triple = "x86_64-unknown-linux-gnu"

%"class.rocksdb::WritePreparedSnapshotChecker" = type { %"class.rocksdb::SnapshotChecker", ptr }
%"class.rocksdb::SnapshotChecker" = type { ptr }

; Function Attrs: mustprogress uwtable
define noundef i32 @_ZNK7rocksdb28WritePreparedSnapshotChecker15CheckInSnapshotEmm(ptr noundef nonnull align 8 dereferenceable(16) %this, i64 noundef %sequence, i64 noundef %snapshot_sequence) unnamed_addr #0 align 2 {
entry:
  %retval = alloca i32, align 4
  %this.addr = alloca ptr, align 8
  %sequence.addr = alloca i64, align 8
  %snapshot_sequence.addr = alloca i64, align 8
  %snapshot_released = alloca i8, align 1
  %in_snapshot = alloca i8, align 1
  store ptr %this, ptr %this.addr, align 8
  store i64 %sequence, ptr %sequence.addr, align 8
  store i64 %snapshot_sequence, ptr %snapshot_sequence.addr, align 8
  %this1 = load ptr, ptr %this.addr, align 8
  store i8 0, ptr %snapshot_released, align 1
  %txn_db_ = getelementptr inbounds %"class.rocksdb::WritePreparedSnapshotChecker", ptr %this1, i32 0, i32 1
  %0 = load ptr, ptr %txn_db_, align 8
  %1 = load i64, ptr %sequence.addr, align 8
  %2 = load i64, ptr %snapshot_sequence.addr, align 8
  %call = call noundef zeroext i1 @_ZNK7rocksdb18WritePreparedTxnDB12IsInSnapshotEmmmPb(ptr noundef nonnull align 8 dereferenceable(1352) %0, i64 noundef %1, i64 noundef %2, i64 noundef 1, ptr noundef %snapshot_released)
  %frombool = zext i1 %call to i8
  store i8 %frombool, ptr %in_snapshot, align 1
  %3 = load i8, ptr %snapshot_released, align 1
  %tobool = trunc i8 %3 to i1
  br i1 %tobool, label %if.then, label %if.end

if.then:                                          ; preds = %entry
  store i32 2, ptr %retval, align 4
  br label %return

if.end:                                           ; preds = %entry
  %4 = load i8, ptr %in_snapshot, align 1
  %tobool2 = trunc i8 %4 to i1
  %cond = select i1 %tobool2, i32 0, i32 1
  store i32 %cond, ptr %retval, align 4
  br label %return

return:                                           ; preds = %if.end, %if.then
  %5 = load i32, ptr %retval, align 4
  ret i32 %5
}