; Function Attrs: mustprogress uwtable
define noundef i32 @_ZNK7rocksdb28WritePreparedSnapshotChecker15CheckInSnapshotEmm(ptr nocapture noundef nonnull readonly align 8 dereferenceable(16) %this, i64 noundef %sequence, i64 noundef %snapshot_sequence) unnamed_addr #3 align 2 {
entry:
  %snapshot_released = alloca i8, align 1
  store i8 0, ptr %snapshot_released, align 1
  %txn_db_ = getelementptr inbounds i8, ptr %this, i64 8
  %0 = load ptr, ptr %txn_db_, align 8
  %call = call noundef zeroext i1 @_ZNK7rocksdb18WritePreparedTxnDB12IsInSnapshotEmmmPb(ptr noundef nonnull align 8 dereferenceable(1352) %0, i64 noundef %sequence, i64 noundef %snapshot_sequence, i64 noundef 1, ptr noundef nonnull %snapshot_released)
  %1 = load i8, ptr %snapshot_released, align 1
  %2 = and i8 %1, 1
  %tobool.not = icmp eq i8 %2, 0
  %not.call = xor i1 %call, true
  %cond = zext i1 %not.call to i32
  %retval.0 = select i1 %tobool.not, i32 %cond, i32 2
  ret i32 %retval.0
}